target datalayout = "e-m:e-p270:32:32-p271:32:32-p272:64:64-i64:64-i128:128-f80:128-n8:16:32:64-S128"
target triple = "x86_64-pc-linux-gnu"

%struct.Agg = type { %struct.Plan, i32, i32, i32, ptr, ptr, ptr, i64, i64, ptr, ptr, ptr }
%struct.Plan = type { i32, i32, double, double, double, i32, i8, i8, i8, i32, ptr, ptr, ptr, ptr, ptr, ptr, ptr }
%struct.AggState = type { %struct.ScanState, ptr, i32, i32, i32, i32, ptr, i32, i32, ptr, ptr, ptr, ptr, ptr, ptr, ptr, ptr, i8, i8, i32, i32, ptr, ptr, ptr, i32, i8, i32, ptr, ptr, ptr, ptr, ptr, ptr, i8, i32, ptr, ptr, ptr, ptr, ptr, ptr, i8, i8, i64, i64, i32, double, i64, i64, i64, i32, ptr, ptr, ptr, ptr }
%struct.ScanState = type { %struct.PlanState, ptr, ptr, ptr }
%struct.PlanState = type { i32, ptr, ptr, ptr, ptr, ptr, ptr, ptr, ptr, ptr, ptr, ptr, ptr, ptr, ptr, ptr, ptr, ptr, i8, ptr, ptr, ptr, ptr, ptr, i8, i8, i8, i8, i8, i8, i8, i8 }
%struct.TupleTableSlot = type { i32, i16, i16, ptr, ptr, ptr, ptr, ptr, %struct.ItemPointerData, i32 }
%struct.ItemPointerData = type { %struct.BlockIdData, i16 }
%struct.BlockIdData = type { i16, i16 }
%struct.AggStatePerHashData = type { ptr, %struct.tuplehash_iterator, ptr, ptr, ptr, i32, i32, i32, ptr, ptr, ptr }
%struct.tuplehash_iterator = type { i32, i32, i8 }
%struct.ExprContext = type { i32, ptr, ptr, ptr, ptr, ptr, ptr, ptr, ptr, ptr, i64, i8, i64, i8, ptr, ptr, ptr, ptr }

; Function Attrs: nounwind uwtable
define internal void @build_hash_table(ptr noundef %0, i32 noundef %1, i64 noundef %2) #0 {
  %4 = alloca ptr, align 8
  %5 = alloca i32, align 4
  %6 = alloca i64, align 8
  %7 = alloca ptr, align 8
  %8 = alloca ptr, align 8
  %9 = alloca ptr, align 8
  %10 = alloca ptr, align 8
  %11 = alloca i64, align 8
  store ptr %0, ptr %4, align 8
  store i32 %1, ptr %5, align 4
  store i64 %2, ptr %6, align 8
  call void @llvm.lifetime.start.p0(i64 8, ptr %7) #9
  %12 = load ptr, ptr %4, align 8
  %13 = getelementptr inbounds nuw %struct.AggState, ptr %12, i32 0, i32 51
  %14 = load ptr, ptr %13, align 8
  %15 = load i32, ptr %5, align 4
  %16 = sext i32 %15 to i64
  %17 = getelementptr inbounds %struct.AggStatePerHashData, ptr %14, i64 %16
  store ptr %17, ptr %7, align 8
  call void @llvm.lifetime.start.p0(i64 8, ptr %8) #9
  %18 = load ptr, ptr %4, align 8
  %19 = getelementptr inbounds nuw %struct.AggState, ptr %18, i32 0, i32 35
  %20 = load ptr, ptr %19, align 8
  store ptr %20, ptr %8, align 8
  call void @llvm.lifetime.start.p0(i64 8, ptr %9) #9
  %21 = load ptr, ptr %4, align 8
  %22 = getelementptr inbounds nuw %struct.AggState, ptr %21, i32 0, i32 11
  %23 = load ptr, ptr %22, align 8
  %24 = getelementptr inbounds nuw %struct.ExprContext, ptr %23, i32 0, i32 5
  %25 = load ptr, ptr %24, align 8
  store ptr %25, ptr %9, align 8
  call void @llvm.lifetime.start.p0(i64 8, ptr %10) #9
  %26 = load ptr, ptr %4, align 8
  %27 = getelementptr inbounds nuw %struct.AggState, ptr %26, i32 0, i32 13
  %28 = load ptr, ptr %27, align 8
  %29 = getelementptr inbounds nuw %struct.ExprContext, ptr %28, i32 0, i32 5
  %30 = load ptr, ptr %29, align 8
  store ptr %30, ptr %10, align 8
  call void @llvm.lifetime.start.p0(i64 8, ptr %11) #9
  %31 = load ptr, ptr %4, align 8
  %32 = getelementptr inbounds nuw %struct.AggState, ptr %31, i32 0, i32 3
  %33 = load i32, ptr %32, align 4
  %34 = sext i32 %33 to i64
  %35 = mul i64 %34, 16
  store i64 %35, ptr %11, align 8
  %36 = load ptr, ptr %4, align 8
  %37 = getelementptr inbounds nuw %struct.AggState, ptr %36, i32 0, i32 0
  %38 = getelementptr inbounds nuw %struct.ScanState, ptr %37, i32 0, i32 0
  %39 = load ptr, ptr %7, align 8
  %40 = getelementptr inbounds nuw %struct.AggStatePerHashData, ptr %39, i32 0, i32 2
  %41 = load ptr, ptr %40, align 8
  %42 = getelementptr inbounds nuw %struct.TupleTableSlot, ptr %41, i32 0, i32 4
  %43 = load ptr, ptr %42, align 8
  %44 = load ptr, ptr %7, align 8
  %45 = getelementptr inbounds nuw %struct.AggStatePerHashData, ptr %44, i32 0, i32 2
  %46 = load ptr, ptr %45, align 8
  %47 = getelementptr inbounds nuw %struct.TupleTableSlot, ptr %46, i32 0, i32 3
  %48 = load ptr, ptr %47, align 8
  %49 = load ptr, ptr %7, align 8
  %50 = getelementptr inbounds nuw %struct.AggStatePerHashData, ptr %49, i32 0, i32 5
  %51 = load i32, ptr %50, align 8
  %52 = load ptr, ptr %7, align 8
  %53 = getelementptr inbounds nuw %struct.AggStatePerHashData, ptr %52, i32 0, i32 9
  %54 = load ptr, ptr %53, align 8
  %55 = load ptr, ptr %7, align 8
  %56 = getelementptr inbounds nuw %struct.AggStatePerHashData, ptr %55, i32 0, i32 4
  %57 = load ptr, ptr %56, align 8
  %58 = load ptr, ptr %7, align 8
  %59 = getelementptr inbounds nuw %struct.AggStatePerHashData, ptr %58, i32 0, i32 3
  %60 = load ptr, ptr %59, align 8
  %61 = load ptr, ptr %7, align 8
  %62 = getelementptr inbounds nuw %struct.AggStatePerHashData, ptr %61, i32 0, i32 10
  %63 = load ptr, ptr %62, align 8
  %64 = getelementptr inbounds nuw %struct.Agg, ptr %63, i32 0, i32 6
  %65 = load ptr, ptr %64, align 8
  %66 = load i64, ptr %6, align 8
  %67 = load i64, ptr %11, align 8
  %68 = load ptr, ptr %8, align 8
  %69 = load ptr, ptr %9, align 8
  %70 = load ptr, ptr %10, align 8
  %71 = load ptr, ptr %4, align 8
  %72 = getelementptr inbounds nuw %struct.AggState, ptr %71, i32 0, i32 5
  %73 = load i32, ptr %72, align 4
  %74 = and i32 %73, 2
  %75 = icmp ne i32 %74, 0
  %76 = call ptr @BuildTupleHashTable(ptr noundef %38, ptr noundef %43, ptr noundef %48, i32 noundef %51, ptr noundef %54, ptr noundef %57, ptr noundef %60, ptr noundef %65, i64 noundef %66, i64 noundef %67, ptr noundef %68, ptr noundef %69, ptr noundef %70, i1 noundef zeroext %75)
  %77 = load ptr, ptr %7, align 8
  %78 = getelementptr inbounds nuw %struct.AggStatePerHashData, ptr %77, i32 0, i32 0
  store ptr %76, ptr %78, align 8
  call void @llvm.lifetime.end.p0(i64 8, ptr %11) #9
  call void @llvm.lifetime.end.p0(i64 8, ptr %10) #9
  call void @llvm.lifetime.end.p0(i64 8, ptr %9) #9
  call void @llvm.lifetime.end.p0(i64 8, ptr %8) #9
  call void @llvm.lifetime.end.p0(i64 8, ptr %7) #9
  ret void
}

; Function Attrs: nounwind uwtable
define internal i64 @hash_choose_num_buckets(double noundef %0, i64 noundef %1, i64 noundef %2) #0 {
  %4 = alloca double, align 8
  %5 = alloca i64, align 8
  %6 = alloca i64, align 8
  %7 = alloca i64, align 8
  %8 = alloca i64, align 8
  store double %0, ptr %4, align 8
  store i64 %1, ptr %5, align 8
  store i64 %2, ptr %6, align 8
  call void @llvm.lifetime.start.p0(i64 8, ptr %7) #9
  call void @llvm.lifetime.start.p0(i64 8, ptr %8) #9
  %9 = load i64, ptr %5, align 8
  store i64 %9, ptr %8, align 8
  %10 = load i64, ptr %6, align 8
  %11 = uitofp i64 %10 to double
  %12 = load double, ptr %4, align 8
  %13 = fdiv double %11, %12
  %14 = fptosi double %13 to i64
  store i64 %14, ptr %7, align 8
  %15 = load i64, ptr %7, align 8
  %16 = ashr i64 %15, 1
  store i64 %16, ptr %7, align 8
  %17 = load i64, ptr %8, align 8
  %18 = load i64, ptr %7, align 8
  %19 = icmp sgt i64 %17, %18
  br i1 %19, label %20, label %22

20:                                               ; preds = %3
  %21 = load i64, ptr %7, align 8
  store i64 %21, ptr %8, align 8
  br label %22

22:                                               ; preds = %20, %3
  %23 = load i64, ptr %8, align 8
  %24 = icmp sgt i64 %23, 1
  br i1 %24, label %25, label %27

25:                                               ; preds = %22
  %26 = load i64, ptr %8, align 8
  br label %28

27:                                               ; preds = %22
  br label %28

28:                                               ; preds = %27, %25
  %29 = phi i64 [ %26, %25 ], [ 1, %27 ]
  call void @llvm.lifetime.end.p0(i64 8, ptr %8) #9
  call void @llvm.lifetime.end.p0(i64 8, ptr %7) #9
  ret i64 %29
}

; Function Attrs: nounwind uwtable
define internal void @build_hash_tables(ptr noundef %0) #0 {
  %2 = alloca ptr, align 8
  %3 = alloca i32, align 4
  %4 = alloca ptr, align 8
  %5 = alloca i64, align 8
  %6 = alloca i64, align 8
  %7 = alloca i32, align 4
  store ptr %0, ptr %2, align 8
  call void @llvm.lifetime.start.p0(i64 4, ptr %3) #9
  store i32 0, ptr %3, align 4
  br label %8

8:                                                ; preds = %54, %1
  %9 = load i32, ptr %3, align 4
  %10 = load ptr, ptr %2, align 8
  %11 = getelementptr inbounds nuw %struct.AggState, ptr %10, i32 0, i32 34
  %12 = load i32, ptr %11, align 4
  %13 = icmp slt i32 %9, %12
  br i1 %13, label %14, label %57

14:                                               ; preds = %8
  call void @llvm.lifetime.start.p0(i64 8, ptr %4) #9
  %15 = load ptr, ptr %2, align 8
  %16 = getelementptr inbounds nuw %struct.AggState, ptr %15, i32 0, i32 51
  %17 = load ptr, ptr %16, align 8
  %18 = load i32, ptr %3, align 4
  %19 = sext i32 %18 to i64
  %20 = getelementptr inbounds %struct.AggStatePerHashData, ptr %17, i64 %19
  store ptr %20, ptr %4, align 8
  call void @llvm.lifetime.start.p0(i64 8, ptr %5) #9
  call void @llvm.lifetime.start.p0(i64 8, ptr %6) #9
  %21 = load ptr, ptr %4, align 8
  %22 = getelementptr inbounds nuw %struct.AggStatePerHashData, ptr %21, i32 0, i32 0
  %23 = load ptr, ptr %22, align 8
  %24 = icmp ne ptr %23, null
  br i1 %24, label %25, label %29

25:                                               ; preds = %14
  %26 = load ptr, ptr %4, align 8
  %27 = getelementptr inbounds nuw %struct.AggStatePerHashData, ptr %26, i32 0, i32 0
  %28 = load ptr, ptr %27, align 8
  call void @ResetTupleHashTable(ptr noundef %28)
  store i32 4, ptr %7, align 4
  br label %51

29:                                               ; preds = %14
  %30 = load ptr, ptr %2, align 8
  %31 = getelementptr inbounds nuw %struct.AggState, ptr %30, i32 0, i32 43
  %32 = load i64, ptr %31, align 8
  %33 = load ptr, ptr %2, align 8
  %34 = getelementptr inbounds nuw %struct.AggState, ptr %33, i32 0, i32 34
  %35 = load i32, ptr %34, align 4
  %36 = sext i32 %35 to i64
  %37 = udiv i64 %32, %36
  store i64 %37, ptr %6, align 8
  %38 = load ptr, ptr %2, align 8
  %39 = getelementptr inbounds nuw %struct.AggState, ptr %38, i32 0, i32 46
  %40 = load double, ptr %39, align 8
  %41 = load ptr, ptr %4, align 8
  %42 = getelementptr inbounds nuw %struct.AggStatePerHashData, ptr %41, i32 0, i32 10
  %43 = load ptr, ptr %42, align 8
  %44 = getelementptr inbounds nuw %struct.Agg, ptr %43, i32 0, i32 7
  %45 = load i64, ptr %44, align 8
  %46 = load i64, ptr %6, align 8
  %47 = call i64 @hash_choose_num_buckets(double noundef %40, i64 noundef %45, i64 noundef %46)
  store i64 %47, ptr %5, align 8
  %48 = load ptr, ptr %2, align 8
  %49 = load i32, ptr %3, align 4
  %50 = load i64, ptr %5, align 8
  call void @build_hash_table(ptr noundef %48, i32 noundef %49, i64 noundef %50)
  store i32 0, ptr %7, align 4
  br label %51

51:                                               ; preds = %29, %25
  call void @llvm.lifetime.end.p0(i64 8, ptr %6) #9
  call void @llvm.lifetime.end.p0(i64 8, ptr %5) #9
  call void @llvm.lifetime.end.p0(i64 8, ptr %4) #9
  %52 = load i32, ptr %7, align 4
  switch i32 %52, label %60 [
    i32 0, label %53
    i32 4, label %54
  ]

53:                                               ; preds = %51
  br label %54

54:                                               ; preds = %53, %51
  %55 = load i32, ptr %3, align 4
  %56 = add i32 %55, 1
  store i32 %56, ptr %3, align 4
  br label %8, !llvm.loop !27

57:                                               ; preds = %8
  %58 = load ptr, ptr %2, align 8
  %59 = getelementptr inbounds nuw %struct.AggState, ptr %58, i32 0, i32 48
  store i64 0, ptr %59, align 8
  call void @llvm.lifetime.end.p0(i64 4, ptr %3) #9
  ret void

60:                                               ; preds = %51
  unreachable
}