; Function Attrs: nounwind uwtable
define internal fastcc void @build_hash_tables(ptr noundef %0) unnamed_addr #2 {
  %2 = getelementptr inbounds nuw i8, ptr %0, i64 436
  %3 = load i32, ptr %2, align 4
  %4 = icmp sgt i32 %3, 0
  br i1 %4, label %.lr.ph, label %._crit_edge

.lr.ph:                                           ; preds = %1
  %5 = getelementptr inbounds nuw i8, ptr %0, i64 560
  %6 = getelementptr inbounds nuw i8, ptr %0, i64 496
  %7 = getelementptr inbounds nuw i8, ptr %0, i64 520
  %8 = getelementptr inbounds nuw i8, ptr %0, i64 440
  %9 = getelementptr inbounds nuw i8, ptr %0, i64 280
  %10 = getelementptr inbounds nuw i8, ptr %0, i64 296
  %11 = getelementptr inbounds nuw i8, ptr %0, i64 236
  %12 = getelementptr inbounds nuw i8, ptr %0, i64 244
  br label %13

13:                                               ; preds = %.lr.ph, %63
  %indvars.iv = phi i64 [ 0, %.lr.ph ], [ %indvars.iv.next, %63 ]
  %14 = phi i32 [ %3, %.lr.ph ], [ %64, %63 ]
  %15 = load ptr, ptr %5, align 8
  %16 = getelementptr inbounds nuw %struct.AggStatePerHashData, ptr %15, i64 %indvars.iv
  %17 = load ptr, ptr %16, align 8
  %.not = icmp eq ptr %17, null
  br i1 %.not, label %19, label %18

18:                                               ; preds = %13
  tail call void @ResetTupleHashTable(ptr noundef nonnull %17) #12
  br label %63

19:                                               ; preds = %13
  %20 = load i64, ptr %6, align 8
  %21 = sext i32 %14 to i64
  %22 = udiv i64 %20, %21
  %23 = load double, ptr %7, align 8
  %24 = getelementptr inbounds nuw i8, ptr %16, i64 80
  %25 = load ptr, ptr %24, align 8
  %26 = getelementptr inbounds nuw i8, ptr %25, i64 144
  %27 = load i64, ptr %26, align 8
  %28 = uitofp i64 %22 to double
  %29 = fdiv double %28, %23
  %30 = fptosi double %29 to i64
  %31 = ashr i64 %30, 1
  %spec.select.i = tail call i64 @llvm.smin.i64(i64 %27, i64 %31)
  %32 = tail call range(i64 1, 4611686018427387904) i64 @llvm.smax.i64(i64 %spec.select.i, i64 1)
  %33 = load ptr, ptr %8, align 8
  %34 = load ptr, ptr %9, align 8
  %35 = getelementptr inbounds nuw i8, ptr %34, i64 40
  %36 = load ptr, ptr %35, align 8
  %37 = load ptr, ptr %10, align 8
  %38 = getelementptr inbounds nuw i8, ptr %37, i64 40
  %39 = load ptr, ptr %38, align 8
  %40 = load i32, ptr %11, align 4
  %41 = sext i32 %40 to i64
  %42 = shl nsw i64 %41, 4
  %43 = getelementptr inbounds nuw i8, ptr %16, i64 24
  %44 = load ptr, ptr %43, align 8
  %45 = getelementptr inbounds nuw i8, ptr %44, i64 16
  %46 = load ptr, ptr %45, align 8
  %47 = getelementptr inbounds nuw i8, ptr %44, i64 8
  %48 = load ptr, ptr %47, align 8
  %49 = getelementptr inbounds nuw i8, ptr %16, i64 48
  %50 = load i32, ptr %49, align 8
  %51 = getelementptr inbounds nuw i8, ptr %16, i64 72
  %52 = load ptr, ptr %51, align 8
  %53 = getelementptr inbounds nuw i8, ptr %16, i64 40
  %54 = load ptr, ptr %53, align 8
  %55 = getelementptr inbounds nuw i8, ptr %16, i64 32
  %56 = load ptr, ptr %55, align 8
  %57 = getelementptr inbounds nuw i8, ptr %25, i64 136
  %58 = load ptr, ptr %57, align 8
  %59 = load i32, ptr %12, align 4
  %60 = and i32 %59, 2
  %61 = icmp ne i32 %60, 0
  %62 = tail call ptr @BuildTupleHashTable(ptr noundef nonnull %0, ptr noundef %46, ptr noundef %48, i32 noundef %50, ptr noundef %52, ptr noundef %54, ptr noundef %56, ptr noundef %58, i64 noundef range(i64 -9223372036854775808, 4611686018427387904) %32, i64 noundef %42, ptr noundef %33, ptr noundef %36, ptr noundef %39, i1 noundef zeroext %61) #12
  store ptr %62, ptr %16, align 8
  br label %63

63:                                               ; preds = %19, %18
  %indvars.iv.next = add nuw nsw i64 %indvars.iv, 1
  %64 = load i32, ptr %2, align 4
  %65 = sext i32 %64 to i64
  %66 = icmp slt i64 %indvars.iv.next, %65
  br i1 %66, label %13, label %._crit_edge, !llvm.loop !29

._crit_edge:                                      ; preds = %63, %1
  %67 = getelementptr inbounds nuw i8, ptr %0, i64 536
  store i64 0, ptr %67, align 8
  ret void
}